; Function Attrs: mustprogress nofree norecurse nosync nounwind memory(argmem: readwrite) uwtable
define internal noundef i32 @_ZN2cvL14normDiffL2_64fEPKdS1_PKhPdii(ptr noundef readonly captures(none) %0, ptr noundef readonly captures(none) %1, ptr noundef readonly %2, ptr noundef captures(none) %3, i32 noundef %4, i32 noundef %5) #10 {
  %7 = load double, ptr %3, align 8, !tbaa !36
  %.not.i = icmp eq ptr %2, null
  br i1 %.not.i, label %21, label %.preheader33.i

.preheader33.i:                                   ; preds = %6
  %8 = icmp sgt i32 %4, 0
  br i1 %8, label %.lr.ph41.i, label %_ZN2cv11normDiffL2_IddEEiPKT_S3_PKhPT0_ii.exit

.lr.ph41.i:                                       ; preds = %.preheader33.i
  %9 = icmp sgt i32 %5, 0
  %10 = sext i32 %5 to i64
  br i1 %9, label %.lr.ph41.split.us.preheader.i, label %_ZN2cv11normDiffL2_IddEEiPKT_S3_PKhPT0_ii.exit

.lr.ph41.split.us.preheader.i:                    ; preds = %.lr.ph41.i
  %wide.trip.count49.i = zext nneg i32 %4 to i64
  %wide.trip.count.i = zext nneg i32 %5 to i64
  br label %.lr.ph41.split.us.i

.lr.ph41.split.us.i:                              ; preds = %..loopexit_crit_edge.us.i, %.lr.ph41.split.us.preheader.i
  %indvars.iv46.i = phi i64 [ 0, %.lr.ph41.split.us.preheader.i ], [ %indvars.iv.next47.i, %..loopexit_crit_edge.us.i ]
  %.040.us.i = phi ptr [ %0, %.lr.ph41.split.us.preheader.i ], [ %19, %..loopexit_crit_edge.us.i ]
  %.138.us.i = phi double [ %7, %.lr.ph41.split.us.preheader.i ], [ %.3.us.i, %..loopexit_crit_edge.us.i ]
  %.03037.us.i = phi ptr [ %1, %.lr.ph41.split.us.preheader.i ], [ %20, %..loopexit_crit_edge.us.i ]
  %11 = getelementptr inbounds nuw i8, ptr %2, i64 %indvars.iv46.i
  %12 = load i8, ptr %11, align 1, !tbaa !12
  %.not32.us.i = icmp eq i8 %12, 0
  br i1 %.not32.us.i, label %..loopexit_crit_edge.us.i, label %.preheader.us.i

.preheader.us.i:                                  ; preds = %.lr.ph41.split.us.i, %.preheader.us.i
  %indvars.iv.i = phi i64 [ %indvars.iv.next.i, %.preheader.us.i ], [ 0, %.lr.ph41.split.us.i ]
  %.235.us.i = phi double [ %18, %.preheader.us.i ], [ %.138.us.i, %.lr.ph41.split.us.i ]
  %13 = getelementptr inbounds nuw double, ptr %.040.us.i, i64 %indvars.iv.i
  %14 = load double, ptr %13, align 8, !tbaa !36
  %15 = getelementptr inbounds nuw double, ptr %.03037.us.i, i64 %indvars.iv.i
  %16 = load double, ptr %15, align 8, !tbaa !36
  %17 = fsub double %14, %16
  %18 = tail call double @llvm.fmuladd.f64(double %17, double %17, double %.235.us.i)
  %indvars.iv.next.i = add nuw nsw i64 %indvars.iv.i, 1
  %exitcond.not.i = icmp eq i64 %indvars.iv.next.i, %wide.trip.count.i
  br i1 %exitcond.not.i, label %..loopexit_crit_edge.us.i, label %.preheader.us.i, !llvm.loop !215

..loopexit_crit_edge.us.i:                        ; preds = %.preheader.us.i, %.lr.ph41.split.us.i
  %.3.us.i = phi double [ %.138.us.i, %.lr.ph41.split.us.i ], [ %18, %.preheader.us.i ]
  %indvars.iv.next47.i = add nuw nsw i64 %indvars.iv46.i, 1
  %19 = getelementptr inbounds nuw double, ptr %.040.us.i, i64 %10
  %20 = getelementptr inbounds nuw double, ptr %.03037.us.i, i64 %10
  %exitcond50.not.i = icmp eq i64 %indvars.iv.next47.i, %wide.trip.count49.i
  br i1 %exitcond50.not.i, label %_ZN2cv11normDiffL2_IddEEiPKT_S3_PKhPT0_ii.exit, label %.lr.ph41.split.us.i, !llvm.loop !216

21:                                               ; preds = %6
  %22 = mul nsw i32 %5, %4
  %23 = icmp sgt i32 %22, 0
  br i1 %23, label %.lr.ph.preheader.i.i, label %_ZN2cvL9normL2SqrIddEET0_PKT_S4_i.exit.i

.lr.ph.preheader.i.i:                             ; preds = %21
  %wide.trip.count.i.i = zext nneg i32 %22 to i64
  br label %.lr.ph.i.i

.lr.ph.i.i:                                       ; preds = %.lr.ph.i.i, %.lr.ph.preheader.i.i
  %indvars.iv.i.i = phi i64 [ 0, %.lr.ph.preheader.i.i ], [ %indvars.iv.next.i.i, %.lr.ph.i.i ]
  %.012.i.i = phi double [ 0.000000e+00, %.lr.ph.preheader.i.i ], [ %29, %.lr.ph.i.i ]
  %24 = getelementptr inbounds nuw double, ptr %0, i64 %indvars.iv.i.i
  %25 = load double, ptr %24, align 8, !tbaa !36
  %26 = getelementptr inbounds nuw double, ptr %1, i64 %indvars.iv.i.i
  %27 = load double, ptr %26, align 8, !tbaa !36
  %28 = fsub double %25, %27
  %29 = tail call double @llvm.fmuladd.f64(double %28, double %28, double %.012.i.i)
  %indvars.iv.next.i.i = add nuw nsw i64 %indvars.iv.i.i, 1
  %exitcond.not.i.i = icmp eq i64 %indvars.iv.next.i.i, %wide.trip.count.i.i
  br i1 %exitcond.not.i.i, label %_ZN2cvL9normL2SqrIddEET0_PKT_S4_i.exit.i, label %.lr.ph.i.i, !llvm.loop !217

_ZN2cvL9normL2SqrIddEET0_PKT_S4_i.exit.i:         ; preds = %.lr.ph.i.i, %21
  %.0.lcssa.i.i = phi double [ 0.000000e+00, %21 ], [ %29, %.lr.ph.i.i ]
  %30 = fadd double %7, %.0.lcssa.i.i
  br label %_ZN2cv11normDiffL2_IddEEiPKT_S3_PKhPT0_ii.exit

_ZN2cv11normDiffL2_IddEEiPKT_S3_PKhPT0_ii.exit:   ; preds = %..loopexit_crit_edge.us.i, %.preheader33.i, %.lr.ph41.i, %_ZN2cvL9normL2SqrIddEET0_PKT_S4_i.exit.i
  %.029.i = phi double [ %30, %_ZN2cvL9normL2SqrIddEET0_PKT_S4_i.exit.i ], [ %7, %.preheader33.i ], [ %7, %.lr.ph41.i ], [ %.3.us.i, %..loopexit_crit_edge.us.i ]
  store double %.029.i, ptr %3, align 8, !tbaa !36
  ret i32 0
}